target datalayout = "e-m:e-p270:32:32-p271:32:32-p272:64:64-i64:64-i128:128-f80:128-n8:16:32:64-S128"
target triple = "x86_64-pc-linux-gnu"

@.str.3 = private unnamed_addr constant [37 x i8] c"PMIX ERROR: %s in file %s at line %d\00", align 1
@.str.4 = private unnamed_addr constant [18 x i8] c"psquash_flex128.c\00", align 1

; Function Attrs: nounwind uwtable
define internal i64 @flex_pack_integer(i64 noundef %0, ptr noundef %1) #0 {
  %3 = alloca i64, align 8
  %4 = alloca ptr, align 8
  %5 = alloca i64, align 8
  %6 = alloca i64, align 8
  %7 = alloca i8, align 1
  store i64 %0, ptr %3, align 8, !tbaa !38
  store ptr %1, ptr %4, align 8, !tbaa !40
  call void @llvm.lifetime.start.p0(i64 8, ptr %5) #5
  %8 = load i64, ptr %3, align 8, !tbaa !38
  store i64 %8, ptr %5, align 8, !tbaa !38
  call void @llvm.lifetime.start.p0(i64 8, ptr %6) #5
  store i64 0, ptr %6, align 8, !tbaa !38
  br label %9

9:                                                ; preds = %40, %2
  call void @llvm.lifetime.start.p0(i64 1, ptr %7) #5
  %10 = load i64, ptr %5, align 8, !tbaa !38
  %11 = and i64 %10, 127
  %12 = trunc i64 %11 to i8
  store i8 %12, ptr %7, align 1, !tbaa !41
  %13 = load i64, ptr %5, align 8, !tbaa !38
  %14 = lshr i64 %13, 7
  store i64 %14, ptr %5, align 8, !tbaa !38
  %15 = load i64, ptr %5, align 8, !tbaa !38
  %16 = icmp ne i64 %15, 0
  %17 = xor i1 %16, true
  %18 = xor i1 %17, true
  %19 = zext i1 %18 to i32
  %20 = sext i32 %19 to i64
  %21 = call i64 @llvm.expect.i64(i64 %20, i64 0)
  %22 = icmp ne i64 %21, 0
  br i1 %22, label %23, label %28

23:                                               ; preds = %9
  %24 = load i8, ptr %7, align 1, !tbaa !41
  %25 = zext i8 %24 to i32
  %26 = or i32 %25, 128
  %27 = trunc i32 %26 to i8
  store i8 %27, ptr %7, align 1, !tbaa !41
  br label %28

28:                                               ; preds = %23, %9
  %29 = load i8, ptr %7, align 1, !tbaa !41
  %30 = load ptr, ptr %4, align 8, !tbaa !40
  %31 = load i64, ptr %6, align 8, !tbaa !38
  %32 = add i64 %31, 1
  store i64 %32, ptr %6, align 8, !tbaa !38
  %33 = getelementptr inbounds nuw i8, ptr %30, i64 %31
  store i8 %29, ptr %33, align 1, !tbaa !41
  call void @llvm.lifetime.end.p0(i64 1, ptr %7) #5
  br label %34

34:                                               ; preds = %28
  %35 = load i64, ptr %5, align 8, !tbaa !38
  %36 = icmp ne i64 %35, 0
  br i1 %36, label %37, label %40

37:                                               ; preds = %34
  %38 = load i64, ptr %6, align 8, !tbaa !38
  %39 = icmp ult i64 %38, 8
  br label %40

40:                                               ; preds = %37, %34
  %41 = phi i1 [ false, %34 ], [ %39, %37 ]
  br i1 %41, label %9, label %42, !llvm.loop !42

42:                                               ; preds = %40
  %43 = load i64, ptr %6, align 8, !tbaa !38
  %44 = icmp eq i64 8, %43
  br i1 %44, label %45, label %48

45:                                               ; preds = %42
  %46 = load i64, ptr %5, align 8, !tbaa !38
  %47 = icmp ne i64 %46, 0
  br label %48

48:                                               ; preds = %45, %42
  %49 = phi i1 [ false, %42 ], [ %47, %45 ]
  %50 = xor i1 %49, true
  %51 = xor i1 %50, true
  %52 = zext i1 %51 to i32
  %53 = sext i32 %52 to i64
  %54 = call i64 @llvm.expect.i64(i64 %53, i64 0)
  %55 = icmp ne i64 %54, 0
  br i1 %55, label %56, label %63

56:                                               ; preds = %48
  %57 = load i64, ptr %5, align 8, !tbaa !38
  %58 = trunc i64 %57 to i8
  %59 = load ptr, ptr %4, align 8, !tbaa !40
  %60 = load i64, ptr %6, align 8, !tbaa !38
  %61 = add i64 %60, 1
  store i64 %61, ptr %6, align 8, !tbaa !38
  %62 = getelementptr inbounds nuw i8, ptr %59, i64 %60
  store i8 %58, ptr %62, align 1, !tbaa !41
  br label %63

63:                                               ; preds = %56, %48
  %64 = load i64, ptr %6, align 8, !tbaa !38
  call void @llvm.lifetime.end.p0(i64 8, ptr %6) #5
  call void @llvm.lifetime.end.p0(i64 8, ptr %5) #5
  ret i64 %64
}

; Function Attrs: nounwind uwtable
define internal i32 @flex128_encode_int(i16 noundef zeroext %0, ptr noundef %1, ptr noundef %2, ptr noundef %3) #0 {
  %5 = alloca i32, align 4
  %6 = alloca i16, align 2
  %7 = alloca ptr, align 8
  %8 = alloca ptr, align 8
  %9 = alloca ptr, align 8
  %10 = alloca i32, align 4
  %11 = alloca [9 x i8], align 1
  %12 = alloca i64, align 8
  %13 = alloca i16, align 2
  %14 = alloca i64, align 8
  %15 = alloca i32, align 4
  %16 = alloca i16, align 2
  %17 = alloca i32, align 4
  %18 = alloca i64, align 8
  %19 = alloca i32, align 4
  %20 = alloca i32, align 4
  %21 = alloca i64, align 8
  %22 = alloca i64, align 8
  %23 = alloca i32, align 4
  %24 = alloca i64, align 8
  %25 = alloca i64, align 8
  %26 = alloca i32, align 4
  store i16 %0, ptr %6, align 2, !tbaa !35
  store ptr %1, ptr %7, align 8, !tbaa !39
  store ptr %2, ptr %8, align 8, !tbaa !39
  store ptr %3, ptr %9, align 8, !tbaa !36
  call void @llvm.lifetime.start.p0(i64 4, ptr %10) #5
  store i32 0, ptr %10, align 4, !tbaa !37
  call void @llvm.lifetime.start.p0(i64 9, ptr %11) #5
  call void @llvm.lifetime.start.p0(i64 8, ptr %12) #5
  br label %27

27:                                               ; preds = %4
  store i32 0, ptr %10, align 4, !tbaa !37
  %28 = load i16, ptr %6, align 2, !tbaa !35
  %29 = zext i16 %28 to i32
  switch i32 %29, label %115 [
    i32 8, label %30
    i32 13, label %50
    i32 6, label %57
    i32 9, label %57
    i32 11, label %77
    i32 14, label %77
    i32 10, label %84
    i32 4, label %103
    i32 15, label %109
  ]

30:                                               ; preds = %27
  br label %31

31:                                               ; preds = %30
  call void @llvm.lifetime.start.p0(i64 2, ptr %13) #5
  store i16 0, ptr %13, align 2, !tbaa !35
  call void @llvm.lifetime.start.p0(i64 8, ptr %14) #5
  call void @llvm.lifetime.start.p0(i64 4, ptr %15) #5
  store i32 0, ptr %15, align 4, !tbaa !37
  %32 = load ptr, ptr %7, align 8, !tbaa !39
  call void @llvm.memcpy.p0.p0.i64(ptr align 2 %13, ptr align 1 %32, i64 2, i1 false)
  %33 = load i16, ptr %13, align 2, !tbaa !35
  %34 = sext i16 %33 to i64
  store i64 %34, ptr %14, align 8, !tbaa !38
  %35 = load i64, ptr %14, align 8, !tbaa !38
  store i64 %35, ptr %12, align 8, !tbaa !38
  %36 = load i64, ptr %14, align 8, !tbaa !38
  %37 = and i64 %36, -9223372036854775808
  %38 = icmp ne i64 %37, 0
  br i1 %38, label %39, label %42

39:                                               ; preds = %31
  store i32 1, ptr %15, align 4, !tbaa !37
  %40 = load i64, ptr %12, align 8, !tbaa !38
  %41 = xor i64 %40, -1
  store i64 %41, ptr %12, align 8, !tbaa !38
  br label %42

42:                                               ; preds = %39, %31
  %43 = load i64, ptr %12, align 8, !tbaa !38
  %44 = shl i64 %43, 1
  %45 = load i32, ptr %15, align 4, !tbaa !37
  %46 = sext i32 %45 to i64
  %47 = add i64 %44, %46
  store i64 %47, ptr %12, align 8, !tbaa !38
  call void @llvm.lifetime.end.p0(i64 4, ptr %15) #5
  call void @llvm.lifetime.end.p0(i64 8, ptr %14) #5
  call void @llvm.lifetime.end.p0(i64 2, ptr %13) #5
  br label %48

48:                                               ; preds = %42
  br label %49

49:                                               ; preds = %48
  br label %116

50:                                               ; preds = %27
  br label %51

51:                                               ; preds = %50
  call void @llvm.lifetime.start.p0(i64 2, ptr %16) #5
  store i16 0, ptr %16, align 2, !tbaa !35
  %52 = load ptr, ptr %7, align 8, !tbaa !39
  call void @llvm.memcpy.p0.p0.i64(ptr align 2 %16, ptr align 1 %52, i64 2, i1 false)
  %53 = load i16, ptr %16, align 2, !tbaa !35
  %54 = zext i16 %53 to i64
  store i64 %54, ptr %12, align 8, !tbaa !38
  call void @llvm.lifetime.end.p0(i64 2, ptr %16) #5
  br label %55

55:                                               ; preds = %51
  br label %56

56:                                               ; preds = %55
  br label %116

57:                                               ; preds = %27, %27
  br label %58

58:                                               ; preds = %57
  call void @llvm.lifetime.start.p0(i64 4, ptr %17) #5
  store i32 0, ptr %17, align 4, !tbaa !37
  call void @llvm.lifetime.start.p0(i64 8, ptr %18) #5
  call void @llvm.lifetime.start.p0(i64 4, ptr %19) #5
  store i32 0, ptr %19, align 4, !tbaa !37
  %59 = load ptr, ptr %7, align 8, !tbaa !39
  call void @llvm.memcpy.p0.p0.i64(ptr align 4 %17, ptr align 1 %59, i64 4, i1 false)
  %60 = load i32, ptr %17, align 4, !tbaa !37
  %61 = sext i32 %60 to i64
  store i64 %61, ptr %18, align 8, !tbaa !38
  %62 = load i64, ptr %18, align 8, !tbaa !38
  store i64 %62, ptr %12, align 8, !tbaa !38
  %63 = load i64, ptr %18, align 8, !tbaa !38
  %64 = and i64 %63, -9223372036854775808
  %65 = icmp ne i64 %64, 0
  br i1 %65, label %66, label %69

66:                                               ; preds = %58
  store i32 1, ptr %19, align 4, !tbaa !37
  %67 = load i64, ptr %12, align 8, !tbaa !38
  %68 = xor i64 %67, -1
  store i64 %68, ptr %12, align 8, !tbaa !38
  br label %69

69:                                               ; preds = %66, %58
  %70 = load i64, ptr %12, align 8, !tbaa !38
  %71 = shl i64 %70, 1
  %72 = load i32, ptr %19, align 4, !tbaa !37
  %73 = sext i32 %72 to i64
  %74 = add i64 %71, %73
  store i64 %74, ptr %12, align 8, !tbaa !38
  call void @llvm.lifetime.end.p0(i64 4, ptr %19) #5
  call void @llvm.lifetime.end.p0(i64 8, ptr %18) #5
  call void @llvm.lifetime.end.p0(i64 4, ptr %17) #5
  br label %75

75:                                               ; preds = %69
  br label %76

76:                                               ; preds = %75
  br label %116

77:                                               ; preds = %27, %27
  br label %78

78:                                               ; preds = %77
  call void @llvm.lifetime.start.p0(i64 4, ptr %20) #5
  store i32 0, ptr %20, align 4, !tbaa !37
  %79 = load ptr, ptr %7, align 8, !tbaa !39
  call void @llvm.memcpy.p0.p0.i64(ptr align 4 %20, ptr align 1 %79, i64 4, i1 false)
  %80 = load i32, ptr %20, align 4, !tbaa !37
  %81 = zext i32 %80 to i64
  store i64 %81, ptr %12, align 8, !tbaa !38
  call void @llvm.lifetime.end.p0(i64 4, ptr %20) #5
  br label %82

82:                                               ; preds = %78
  br label %83

83:                                               ; preds = %82
  br label %116

84:                                               ; preds = %27
  br label %85

85:                                               ; preds = %84
  call void @llvm.lifetime.start.p0(i64 8, ptr %21) #5
  store i64 0, ptr %21, align 8, !tbaa !38
  call void @llvm.lifetime.start.p0(i64 8, ptr %22) #5
  call void @llvm.lifetime.start.p0(i64 4, ptr %23) #5
  store i32 0, ptr %23, align 4, !tbaa !37
  %86 = load ptr, ptr %7, align 8, !tbaa !39
  call void @llvm.memcpy.p0.p0.i64(ptr align 8 %21, ptr align 1 %86, i64 8, i1 false)
  %87 = load i64, ptr %21, align 8, !tbaa !38
  store i64 %87, ptr %22, align 8, !tbaa !38
  %88 = load i64, ptr %22, align 8, !tbaa !38
  store i64 %88, ptr %12, align 8, !tbaa !38
  %89 = load i64, ptr %22, align 8, !tbaa !38
  %90 = and i64 %89, -9223372036854775808
  %91 = icmp ne i64 %90, 0
  br i1 %91, label %92, label %95

92:                                               ; preds = %85
  store i32 1, ptr %23, align 4, !tbaa !37
  %93 = load i64, ptr %12, align 8, !tbaa !38
  %94 = xor i64 %93, -1
  store i64 %94, ptr %12, align 8, !tbaa !38
  br label %95

95:                                               ; preds = %92, %85
  %96 = load i64, ptr %12, align 8, !tbaa !38
  %97 = shl i64 %96, 1
  %98 = load i32, ptr %23, align 4, !tbaa !37
  %99 = sext i32 %98 to i64
  %100 = add i64 %97, %99
  store i64 %100, ptr %12, align 8, !tbaa !38
  call void @llvm.lifetime.end.p0(i64 4, ptr %23) #5
  call void @llvm.lifetime.end.p0(i64 8, ptr %22) #5
  call void @llvm.lifetime.end.p0(i64 8, ptr %21) #5
  br label %101

101:                                              ; preds = %95
  br label %102

102:                                              ; preds = %101
  br label %116

103:                                              ; preds = %27
  br label %104

104:                                              ; preds = %103
  call void @llvm.lifetime.start.p0(i64 8, ptr %24) #5
  store i64 0, ptr %24, align 8, !tbaa !38
  %105 = load ptr, ptr %7, align 8, !tbaa !39
  call void @llvm.memcpy.p0.p0.i64(ptr align 8 %24, ptr align 1 %105, i64 8, i1 false)
  %106 = load i64, ptr %24, align 8, !tbaa !38
  store i64 %106, ptr %12, align 8, !tbaa !38
  call void @llvm.lifetime.end.p0(i64 8, ptr %24) #5
  br label %107

107:                                              ; preds = %104
  br label %108

108:                                              ; preds = %107
  br label %116

109:                                              ; preds = %27
  br label %110

110:                                              ; preds = %109
  call void @llvm.lifetime.start.p0(i64 8, ptr %25) #5
  store i64 0, ptr %25, align 8, !tbaa !38
  %111 = load ptr, ptr %7, align 8, !tbaa !39
  call void @llvm.memcpy.p0.p0.i64(ptr align 8 %25, ptr align 1 %111, i64 8, i1 false)
  %112 = load i64, ptr %25, align 8, !tbaa !38
  store i64 %112, ptr %12, align 8, !tbaa !38
  call void @llvm.lifetime.end.p0(i64 8, ptr %25) #5
  br label %113

113:                                              ; preds = %110
  br label %114

114:                                              ; preds = %113
  br label %116

115:                                              ; preds = %27
  store i32 -27, ptr %10, align 4, !tbaa !37
  br label %116

116:                                              ; preds = %115, %114, %108, %102, %83, %76, %56, %49
  br label %117

117:                                              ; preds = %116
  br label %118

118:                                              ; preds = %117
  %119 = load i32, ptr %10, align 4, !tbaa !37
  %120 = icmp ne i32 0, %119
  br i1 %120, label %121, label %132

121:                                              ; preds = %118
  br label %122

122:                                              ; preds = %121
  %123 = load i32, ptr %10, align 4, !tbaa !37
  %124 = icmp ne i32 -2, %123
  br i1 %124, label %125, label %128

125:                                              ; preds = %122
  %126 = load i32, ptr %10, align 4, !tbaa !37
  %127 = call ptr @PMIx_Error_string(i32 noundef %126)
  call void (i32, ptr, ...) @pmix_output(i32 noundef 0, ptr noundef @.str.3, ptr noundef %127, ptr noundef @.str.4, i32 noundef 262)
  br label %128

128:                                              ; preds = %125, %122
  br label %129

129:                                              ; preds = %128
  br label %130

130:                                              ; preds = %129
  %131 = load i32, ptr %10, align 4, !tbaa !37
  store i32 %131, ptr %5, align 4
  store i32 1, ptr %26, align 4
  br label %142

132:                                              ; preds = %118
  %133 = load i64, ptr %12, align 8, !tbaa !38
  %134 = getelementptr inbounds [9 x i8], ptr %11, i64 0, i64 0
  %135 = call i64 @flex_pack_integer(i64 noundef %133, ptr noundef %134)
  %136 = load ptr, ptr %9, align 8, !tbaa !36
  store i64 %135, ptr %136, align 8, !tbaa !38
  %137 = load ptr, ptr %8, align 8, !tbaa !39
  %138 = getelementptr inbounds [9 x i8], ptr %11, i64 0, i64 0
  %139 = load ptr, ptr %9, align 8, !tbaa !36
  %140 = load i64, ptr %139, align 8, !tbaa !38
  call void @llvm.memcpy.p0.p0.i64(ptr align 1 %137, ptr align 1 %138, i64 %140, i1 false)
  %141 = load i32, ptr %10, align 4, !tbaa !37
  store i32 %141, ptr %5, align 4
  store i32 1, ptr %26, align 4
  br label %142

142:                                              ; preds = %132, %130
  call void @llvm.lifetime.end.p0(i64 8, ptr %12) #5
  call void @llvm.lifetime.end.p0(i64 9, ptr %11) #5
  call void @llvm.lifetime.end.p0(i64 4, ptr %10) #5
  %143 = load i32, ptr %5, align 4
  ret i32 %143
}