; Function Attrs: nounwind uwtable
define internal range(i32 -27, 1) i32 @flex128_encode_int(i16 noundef zeroext %0, ptr noundef readonly captures(none) %1, ptr noundef writeonly captures(none) %2, ptr noundef writeonly captures(none) %3) #0 {
  %5 = alloca [9 x i8], align 1
  call void @llvm.lifetime.start.p0(i64 9, ptr nonnull %5) #6
  switch i16 %0, label %20 [
    i16 8, label %6
    i16 13, label %9
    i16 6, label %11
    i16 9, label %11
    i16 11, label %14
    i16 14, label %14
    i16 10, label %16
    i16 4, label %18
    i16 15, label %19
  ]

6:                                                ; preds = %4
  %.0.copyload20 = load i16, ptr %1, align 1
  %.0.copyload20.lobit = lshr i16 %.0.copyload20, 15
  %spec.select = zext nneg i16 %.0.copyload20.lobit to i64
  %.0.copyload20.lobit67 = ashr i16 %.0.copyload20, 15
  %spec.select5368 = xor i16 %.0.copyload20.lobit67, %.0.copyload20
  %spec.select53 = sext i16 %spec.select5368 to i64
  %7 = shl nsw i64 %spec.select53, 1
  %8 = or disjoint i64 %7, %spec.select
  br label %.preheader

.preheader:                                       ; preds = %19, %18, %16, %14, %11, %9, %6
  %.016.i.ph = phi i64 [ %.0.copyload, %19 ], [ %.0.copyload1, %18 ], [ %17, %16 ], [ %15, %14 ], [ %13, %11 ], [ %10, %9 ], [ %8, %6 ]
  br label %22

9:                                                ; preds = %4
  %.0.copyload15 = load i16, ptr %1, align 1
  %10 = zext i16 %.0.copyload15 to i64
  br label %.preheader

11:                                               ; preds = %4, %4
  %.0.copyload13 = load i32, ptr %1, align 1
  %.0.copyload13.lobit = lshr i32 %.0.copyload13, 31
  %spec.select54 = zext nneg i32 %.0.copyload13.lobit to i64
  %.0.copyload13.lobit65 = ashr i32 %.0.copyload13, 31
  %spec.select5566 = xor i32 %.0.copyload13.lobit65, %.0.copyload13
  %spec.select55 = sext i32 %spec.select5566 to i64
  %12 = shl nsw i64 %spec.select55, 1
  %13 = or disjoint i64 %12, %spec.select54
  br label %.preheader

14:                                               ; preds = %4, %4
  %.0.copyload8 = load i32, ptr %1, align 1
  %15 = zext i32 %.0.copyload8 to i64
  br label %.preheader

16:                                               ; preds = %4
  %.0.copyload6 = load i64, ptr %1, align 1
  %.0.copyload6.lobit = ashr i64 %.0.copyload6, 63
  %spec.select56 = xor i64 %.0.copyload6.lobit, %.0.copyload6
  %17 = tail call i64 @llvm.fshl.i64(i64 %spec.select56, i64 %.0.copyload6, i64 1)
  br label %.preheader

18:                                               ; preds = %4
  %.0.copyload1 = load i64, ptr %1, align 1
  br label %.preheader

19:                                               ; preds = %4
  %.0.copyload = load i64, ptr %1, align 1
  br label %.preheader

20:                                               ; preds = %4
  %21 = tail call ptr @PMIx_Error_string(i32 noundef -27) #6
  tail call void (i32, ptr, ...) @pmix_output(i32 noundef 0, ptr noundef nonnull @.str.3, ptr noundef %21, ptr noundef nonnull @.str.4, i32 noundef 262) #6
  br label %34

22:                                               ; preds = %.preheader, %26
  %.016.i = phi i64 [ %27, %26 ], [ %.016.i.ph, %.preheader ]
  %.015.i = phi i64 [ %29, %26 ], [ 0, %.preheader ]
  %23 = trunc i64 %.016.i to i8
  %24 = icmp ugt i64 %.016.i, 127
  br i1 %24, label %26, label %.thread22.i, !prof !36

.thread22.i:                                      ; preds = %22
  %25 = add nuw nsw i64 %.015.i, 1
  br label %flex_pack_integer.exit

26:                                               ; preds = %22
  %27 = lshr i64 %.016.i, 7
  %28 = or i8 %23, -128
  %29 = add nuw nsw i64 %.015.i, 1
  %30 = getelementptr inbounds nuw i8, ptr %5, i64 %.015.i
  store i8 %28, ptr %30, align 1, !tbaa !37
  %exitcond.not.i = icmp eq i64 %29, 8
  br i1 %exitcond.not.i, label %31, label %22, !llvm.loop !38

31:                                               ; preds = %26
  %32 = trunc i64 %27 to i8
  br label %flex_pack_integer.exit

flex_pack_integer.exit:                           ; preds = %.thread22.i, %31
  %.015.lcssa.sink.i = phi i64 [ %.015.i, %.thread22.i ], [ 8, %31 ]
  %.lcssa.sink.i = phi i8 [ %23, %.thread22.i ], [ %32, %31 ]
  %.1.i = phi i64 [ %25, %.thread22.i ], [ 9, %31 ]
  %33 = getelementptr inbounds nuw i8, ptr %5, i64 %.015.lcssa.sink.i
  store i8 %.lcssa.sink.i, ptr %33, align 1, !tbaa !37
  store i64 %.1.i, ptr %3, align 8, !tbaa !35
  call void @llvm.memcpy.p0.p0.i64(ptr noundef nonnull align 1 dereferenceable(1) %2, ptr noundef nonnull align 1 dereferenceable(1) %5, i64 %.1.i, i1 false)
  br label %34

34:                                               ; preds = %flex_pack_integer.exit, %20
  %.04562 = phi i32 [ 0, %flex_pack_integer.exit ], [ -27, %20 ]
  call void @llvm.lifetime.end.p0(i64 9, ptr nonnull %5) #6
  ret i32 %.04562
}